target datalayout = "e-m:e-p270:32:32-p271:32:32-p272:64:64-i64:64-i128:128-f80:128-n8:16:32:64-S128"
target triple = "x86_64-pc-linux-gnu"

%class.V3Hash = type { i32 }
%"struct.std::_Setw" = type { i32 }
%"struct.std::_Setfill" = type { i8 }
%"class.std::locale" = type { ptr }
%"class.std::basic_ios" = type { %"class.std::ios_base", ptr, i8, i8, ptr, ptr, ptr, ptr }
%"class.std::ios_base" = type { ptr, i64, i64, i32, i32, i32, ptr, %"struct.std::ios_base::_Words", [8 x %"struct.std::ios_base::_Words"], i32, ptr, %"class.std::locale" }
%"struct.std::ios_base::_Words" = type { ptr, i64 }
%"class.std::ctype" = type <{ %"class.std::locale::facet.base", [4 x i8], ptr, i8, [7 x i8], ptr, ptr, ptr, i8, [256 x i8], [256 x i8], i8, [6 x i8] }>
%"class.std::locale::facet.base" = type <{ ptr, i32 }>

; Function Attrs: mustprogress uwtable
define linkonce_odr dso_local noundef signext i8 @_ZNKSt5ctypeIcE5widenEc(ptr noundef nonnull align 8 dereferenceable(570) %0, i8 noundef signext %1) #6 comdat align 2 {
  %3 = alloca i8, align 1
  %4 = alloca ptr, align 8
  %5 = alloca i8, align 1
  store ptr %0, ptr %4, align 8, !tbaa !62
  store i8 %1, ptr %5, align 1, !tbaa !24
  %6 = load ptr, ptr %4, align 8
  %7 = getelementptr inbounds nuw %"class.std::ctype", ptr %6, i32 0, i32 8
  %8 = load i8, ptr %7, align 8, !tbaa !63
  %9 = icmp ne i8 %8, 0
  br i1 %9, label %10, label %16

10:                                               ; preds = %2
  %11 = getelementptr inbounds nuw %"class.std::ctype", ptr %6, i32 0, i32 9
  %12 = load i8, ptr %5, align 1, !tbaa !24
  %13 = zext i8 %12 to i64
  %14 = getelementptr inbounds nuw [256 x i8], ptr %11, i64 0, i64 %13
  %15 = load i8, ptr %14, align 1, !tbaa !24
  store i8 %15, ptr %3, align 1
  br label %22

16:                                               ; preds = %2
  call void @_ZNKSt5ctypeIcE13_M_widen_initEv(ptr noundef nonnull align 8 dereferenceable(570) %6)
  %17 = load i8, ptr %5, align 1, !tbaa !24
  %18 = load ptr, ptr %6, align 8, !tbaa !18
  %19 = getelementptr inbounds ptr, ptr %18, i64 6
  %20 = load ptr, ptr %19, align 8
  %21 = call noundef signext i8 %20(ptr noundef nonnull align 8 dereferenceable(570) %6, i8 noundef signext %17)
  store i8 %21, ptr %3, align 1
  br label %22

22:                                               ; preds = %16, %10
  %23 = load i8, ptr %3, align 1
  ret i8 %23
}

; Function Attrs: inlinehint mustprogress uwtable
define linkonce_odr dso_local noundef nonnull align 8 dereferenceable(570) ptr @_ZSt13__check_facetISt5ctypeIcEERKT_PS3_(ptr noundef %0) #7 comdat {
  %2 = alloca ptr, align 8
  store ptr %0, ptr %2, align 8, !tbaa !62
  %3 = load ptr, ptr %2, align 8, !tbaa !62
  %4 = icmp ne ptr %3, null
  br i1 %4, label %6, label %5

5:                                                ; preds = %1
  call void @_ZSt16__throw_bad_castv() #14
  unreachable

6:                                                ; preds = %1
  %7 = load ptr, ptr %2, align 8, !tbaa !62
  ret ptr %7
}

; Function Attrs: mustprogress uwtable
define available_externally noundef signext i8 @_ZNKSt9basic_iosIcSt11char_traitsIcEE5widenEc(ptr noundef nonnull align 8 dereferenceable(264) %0, i8 noundef signext %1) #6 align 2 {
  %3 = alloca ptr, align 8
  %4 = alloca i8, align 1
  store ptr %0, ptr %3, align 8, !tbaa !49
  store i8 %1, ptr %4, align 1, !tbaa !24
  %5 = load ptr, ptr %3, align 8
  %6 = getelementptr inbounds nuw %"class.std::basic_ios", ptr %5, i32 0, i32 5
  %7 = load ptr, ptr %6, align 8, !tbaa !61
  %8 = call noundef nonnull align 8 dereferenceable(570) ptr @_ZSt13__check_facetISt5ctypeIcEERKT_PS3_(ptr noundef %7)
  %9 = load i8, ptr %4, align 1, !tbaa !24
  %10 = call noundef signext i8 @_ZNKSt5ctypeIcE5widenEc(ptr noundef nonnull align 8 dereferenceable(570) %8, i8 noundef signext %9)
  ret i8 %10
}

; Function Attrs: mustprogress uwtable
define available_externally noundef signext i8 @_ZNKSt9basic_iosIcSt11char_traitsIcEE4fillEv(ptr noundef nonnull align 8 dereferenceable(264) %0) #6 align 2 {
  %2 = alloca ptr, align 8
  store ptr %0, ptr %2, align 8, !tbaa !49
  %3 = load ptr, ptr %2, align 8
  %4 = getelementptr inbounds nuw %"class.std::basic_ios", ptr %3, i32 0, i32 3
  %5 = load i8, ptr %4, align 1, !tbaa !58, !range !59, !noundef !60
  %6 = trunc i8 %5 to i1
  br i1 %6, label %11, label %7

7:                                                ; preds = %1
  %8 = call noundef signext i8 @_ZNKSt9basic_iosIcSt11char_traitsIcEE5widenEc(ptr noundef nonnull align 8 dereferenceable(264) %3, i8 noundef signext 32)
  %9 = getelementptr inbounds nuw %"class.std::basic_ios", ptr %3, i32 0, i32 2
  store i8 %8, ptr %9, align 8, !tbaa !51
  %10 = getelementptr inbounds nuw %"class.std::basic_ios", ptr %3, i32 0, i32 3
  store i8 1, ptr %10, align 1, !tbaa !58
  br label %11

11:                                               ; preds = %7, %1
  %12 = getelementptr inbounds nuw %"class.std::basic_ios", ptr %3, i32 0, i32 2
  %13 = load i8, ptr %12, align 8, !tbaa !51
  ret i8 %13
}

; Function Attrs: mustprogress uwtable
define available_externally noundef signext i8 @_ZNSt9basic_iosIcSt11char_traitsIcEE4fillEc(ptr noundef nonnull align 8 dereferenceable(264) %0, i8 noundef signext %1) #6 align 2 {
  %3 = alloca ptr, align 8
  %4 = alloca i8, align 1
  %5 = alloca i8, align 1
  store ptr %0, ptr %3, align 8, !tbaa !49
  store i8 %1, ptr %4, align 1, !tbaa !24
  %6 = load ptr, ptr %3, align 8
  call void @llvm.lifetime.start.p0(i64 1, ptr %5) #3
  %7 = call noundef signext i8 @_ZNKSt9basic_iosIcSt11char_traitsIcEE4fillEv(ptr noundef nonnull align 8 dereferenceable(264) %6)
  store i8 %7, ptr %5, align 1, !tbaa !24
  %8 = load i8, ptr %4, align 1, !tbaa !24
  %9 = getelementptr inbounds nuw %"class.std::basic_ios", ptr %6, i32 0, i32 2
  store i8 %8, ptr %9, align 8, !tbaa !51
  %10 = load i8, ptr %5, align 1, !tbaa !24
  call void @llvm.lifetime.end.p0(i64 1, ptr %5) #3
  ret i8 %10
}

; Function Attrs: mustprogress nounwind uwtable
define linkonce_odr dso_local noundef i64 @_ZNSt8ios_base5widthEl(ptr noundef nonnull align 8 dereferenceable(216) %0, i64 noundef %1) #4 comdat align 2 {
  %3 = alloca ptr, align 8
  %4 = alloca i64, align 8
  %5 = alloca i64, align 8
  store ptr %0, ptr %3, align 8, !tbaa !26
  store i64 %1, ptr %4, align 8, !tbaa !31
  %6 = load ptr, ptr %3, align 8
  call void @llvm.lifetime.start.p0(i64 8, ptr %5) #3
  %7 = getelementptr inbounds nuw %"class.std::ios_base", ptr %6, i32 0, i32 2
  %8 = load i64, ptr %7, align 8, !tbaa !48
  store i64 %8, ptr %5, align 8, !tbaa !31
  %9 = load i64, ptr %4, align 8, !tbaa !31
  %10 = getelementptr inbounds nuw %"class.std::ios_base", ptr %6, i32 0, i32 2
  store i64 %9, ptr %10, align 8, !tbaa !48
  %11 = load i64, ptr %5, align 8, !tbaa !31
  call void @llvm.lifetime.end.p0(i64 8, ptr %5) #3
  ret i64 %11
}

; Function Attrs: mustprogress nounwind uwtable
define linkonce_odr dso_local noundef i64 @_ZNKSt8ios_base5widthEv(ptr noundef nonnull align 8 dereferenceable(216) %0) #4 comdat align 2 {
  %2 = alloca ptr, align 8
  store ptr %0, ptr %2, align 8, !tbaa !26
  %3 = load ptr, ptr %2, align 8
  %4 = getelementptr inbounds nuw %"class.std::ios_base", ptr %3, i32 0, i32 2
  %5 = load i64, ptr %4, align 8, !tbaa !48
  ret i64 %5
}

; Function Attrs: mustprogress uwtable
define available_externally noundef nonnull align 8 dereferenceable(8) ptr @_ZNSolsEj(ptr noundef nonnull align 8 dereferenceable(8) %0, i32 noundef %1) #6 align 2 {
  %3 = alloca ptr, align 8
  %4 = alloca i32, align 4
  store ptr %0, ptr %3, align 8, !tbaa !16
  store i32 %1, ptr %4, align 4, !tbaa !28
  %5 = load ptr, ptr %3, align 8
  %6 = load i32, ptr %4, align 4, !tbaa !28
  %7 = zext i32 %6 to i64
  %8 = call noundef nonnull align 8 dereferenceable(8) ptr @_ZNSo9_M_insertImEERSoT_(ptr noundef nonnull align 8 dereferenceable(8) %5, i64 noundef %7)
  ret ptr %8
}

; Function Attrs: mustprogress nounwind uwtable
define linkonce_odr dso_local noundef i32 @_ZNK6V3Hash5valueEv(ptr noundef nonnull align 4 dereferenceable(4) %0) #4 comdat align 2 {
  %2 = alloca ptr, align 8
  store ptr %0, ptr %2, align 8, !tbaa !4
  %3 = load ptr, ptr %2, align 8
  %4 = getelementptr inbounds nuw %class.V3Hash, ptr %3, i32 0, i32 0
  %5 = load i32, ptr %4, align 4, !tbaa !11
  ret i32 %5
}

; Function Attrs: inlinehint mustprogress uwtable
define available_externally noundef nonnull align 8 dereferenceable(8) ptr @_ZStlsIcSt11char_traitsIcEERSt13basic_ostreamIT_T0_ES6_St8_SetfillIS3_E(ptr noundef nonnull align 8 dereferenceable(8) %0, i8 %1) #7 {
  %3 = alloca %"struct.std::_Setfill", align 1
  %4 = alloca ptr, align 8
  %5 = getelementptr inbounds nuw %"struct.std::_Setfill", ptr %3, i32 0, i32 0
  store i8 %1, ptr %5, align 1
  store ptr %0, ptr %4, align 8, !tbaa !16
  %6 = load ptr, ptr %4, align 8, !tbaa !16
  %7 = load ptr, ptr %6, align 8, !tbaa !18
  %8 = getelementptr i8, ptr %7, i64 -24
  %9 = load i64, ptr %8, align 8
  %10 = getelementptr inbounds i8, ptr %6, i64 %9
  %11 = getelementptr inbounds nuw %"struct.std::_Setfill", ptr %3, i32 0, i32 0
  %12 = load i8, ptr %11, align 1, !tbaa !20
  %13 = call noundef signext i8 @_ZNSt9basic_iosIcSt11char_traitsIcEE4fillEc(ptr noundef nonnull align 8 dereferenceable(264) %10, i8 noundef signext %12)
  %14 = load ptr, ptr %4, align 8, !tbaa !16
  ret ptr %14
}

; Function Attrs: inlinehint mustprogress nounwind uwtable
define linkonce_odr dso_local i8 @_ZSt7setfillIcESt8_SetfillIT_ES1_(i8 noundef signext %0) #8 comdat {
  %2 = alloca %"struct.std::_Setfill", align 1
  %3 = alloca i8, align 1
  store i8 %0, ptr %3, align 1, !tbaa !24
  %4 = getelementptr inbounds nuw %"struct.std::_Setfill", ptr %2, i32 0, i32 0
  %5 = load i8, ptr %3, align 1, !tbaa !24
  store i8 %5, ptr %4, align 1, !tbaa !20
  %6 = getelementptr inbounds nuw %"struct.std::_Setfill", ptr %2, i32 0, i32 0
  %7 = load i8, ptr %6, align 1
  ret i8 %7
}

; Function Attrs: inlinehint mustprogress uwtable
define available_externally noundef nonnull align 8 dereferenceable(8) ptr @_ZStlsIcSt11char_traitsIcEERSt13basic_ostreamIT_T0_ES6_St5_Setw(ptr noundef nonnull align 8 dereferenceable(8) %0, i32 %1) #7 {
  %3 = alloca %"struct.std::_Setw", align 4
  %4 = alloca ptr, align 8
  %5 = getelementptr inbounds nuw %"struct.std::_Setw", ptr %3, i32 0, i32 0
  store i32 %1, ptr %5, align 4
  store ptr %0, ptr %4, align 8, !tbaa !16
  %6 = load ptr, ptr %4, align 8, !tbaa !16
  %7 = load ptr, ptr %6, align 8, !tbaa !18
  %8 = getelementptr i8, ptr %7, i64 -24
  %9 = load i64, ptr %8, align 8
  %10 = getelementptr inbounds i8, ptr %6, i64 %9
  %11 = getelementptr inbounds nuw %"struct.std::_Setw", ptr %3, i32 0, i32 0
  %12 = load i32, ptr %11, align 4, !tbaa !22
  %13 = sext i32 %12 to i64
  %14 = call noundef i64 @_ZNSt8ios_base5widthEl(ptr noundef nonnull align 8 dereferenceable(216) %10, i64 noundef %13)
  %15 = load ptr, ptr %4, align 8, !tbaa !16
  ret ptr %15
}

; Function Attrs: inlinehint mustprogress nounwind uwtable
define linkonce_odr dso_local i32 @_ZSt4setwi(i32 noundef %0) #8 comdat {
  %2 = alloca %"struct.std::_Setw", align 4
  %3 = alloca i32, align 4
  store i32 %0, ptr %3, align 4, !tbaa !28
  %4 = getelementptr inbounds nuw %"struct.std::_Setw", ptr %2, i32 0, i32 0
  %5 = load i32, ptr %3, align 4, !tbaa !28
  store i32 %5, ptr %4, align 4, !tbaa !22
  %6 = getelementptr inbounds nuw %"struct.std::_Setw", ptr %2, i32 0, i32 0
  %7 = load i32, ptr %6, align 4
  ret i32 %7
}

; Function Attrs: mustprogress uwtable
define available_externally noundef nonnull align 8 dereferenceable(8) ptr @_ZNSolsEPFRSt8ios_baseS0_E(ptr noundef nonnull align 8 dereferenceable(8) %0, ptr noundef %1) #6 align 2 {
  %3 = alloca ptr, align 8
  %4 = alloca ptr, align 8
  store ptr %0, ptr %3, align 8, !tbaa !16
  store ptr %1, ptr %4, align 8, !tbaa !25
  %5 = load ptr, ptr %3, align 8
  %6 = load ptr, ptr %4, align 8, !tbaa !25
  %7 = load ptr, ptr %5, align 8, !tbaa !18
  %8 = getelementptr i8, ptr %7, i64 -24
  %9 = load i64, ptr %8, align 8
  %10 = getelementptr inbounds i8, ptr %5, i64 %9
  %11 = call noundef nonnull align 8 dereferenceable(216) ptr %6(ptr noundef nonnull align 8 dereferenceable(216) %10)
  ret ptr %5
}

; Function Attrs: inlinehint mustprogress uwtable
define available_externally noundef nonnull align 8 dereferenceable(8) ptr @_ZStlsISt11char_traitsIcEERSt13basic_ostreamIcT_ES5_c(ptr noundef nonnull align 8 dereferenceable(8) %0, i8 noundef signext %1) #7 {
  %3 = alloca ptr, align 8
  %4 = alloca ptr, align 8
  %5 = alloca i8, align 1
  store ptr %0, ptr %4, align 8, !tbaa !16
  store i8 %1, ptr %5, align 1, !tbaa !24
  %6 = load ptr, ptr %4, align 8, !tbaa !16
  %7 = load ptr, ptr %6, align 8, !tbaa !18
  %8 = getelementptr i8, ptr %7, i64 -24
  %9 = load i64, ptr %8, align 8
  %10 = getelementptr inbounds i8, ptr %6, i64 %9
  %11 = call noundef i64 @_ZNKSt8ios_base5widthEv(ptr noundef nonnull align 8 dereferenceable(216) %10)
  %12 = icmp ne i64 %11, 0
  br i1 %12, label %13, label %16

13:                                               ; preds = %2
  %14 = load ptr, ptr %4, align 8, !tbaa !16
  %15 = call noundef nonnull align 8 dereferenceable(8) ptr @_ZSt16__ostream_insertIcSt11char_traitsIcEERSt13basic_ostreamIT_T0_ES6_PKS3_l(ptr noundef nonnull align 8 dereferenceable(8) %14, ptr noundef %5, i64 noundef 1)
  store ptr %15, ptr %3, align 8
  br label %21

16:                                               ; preds = %2
  %17 = load ptr, ptr %4, align 8, !tbaa !16
  %18 = load i8, ptr %5, align 1, !tbaa !24
  %19 = call noundef nonnull align 8 dereferenceable(8) ptr @_ZNSo3putEc(ptr noundef nonnull align 8 dereferenceable(8) %17, i8 noundef signext %18)
  %20 = load ptr, ptr %4, align 8, !tbaa !16
  store ptr %20, ptr %3, align 8
  br label %21

21:                                               ; preds = %16, %13
  %22 = load ptr, ptr %3, align 8
  ret ptr %22
}

; Function Attrs: mustprogress uwtable
define dso_local noundef nonnull align 8 dereferenceable(8) ptr @_ZlsRSoRK6V3Hash(ptr noundef nonnull align 8 dereferenceable(8) %0, ptr noundef nonnull align 4 dereferenceable(4) %1) #6 {
  %3 = alloca ptr, align 8
  %4 = alloca ptr, align 8
  %5 = alloca %"struct.std::_Setw", align 4
  %6 = alloca %"struct.std::_Setfill", align 1
  store ptr %0, ptr %3, align 8, !tbaa !16
  store ptr %1, ptr %4, align 8, !tbaa !4
  %7 = load ptr, ptr %3, align 8, !tbaa !16
  %8 = call noundef nonnull align 8 dereferenceable(8) ptr @_ZStlsISt11char_traitsIcEERSt13basic_ostreamIcT_ES5_c(ptr noundef nonnull align 8 dereferenceable(8) %7, i8 noundef signext 104)
  %9 = call noundef nonnull align 8 dereferenceable(8) ptr @_ZNSolsEPFRSt8ios_baseS0_E(ptr noundef nonnull align 8 dereferenceable(8) %8, ptr noundef @_ZSt3hexRSt8ios_base)
  %10 = call i32 @_ZSt4setwi(i32 noundef 8)
  %11 = getelementptr inbounds nuw %"struct.std::_Setw", ptr %5, i32 0, i32 0
  store i32 %10, ptr %11, align 4
  %12 = getelementptr inbounds nuw %"struct.std::_Setw", ptr %5, i32 0, i32 0
  %13 = load i32, ptr %12, align 4
  %14 = call noundef nonnull align 8 dereferenceable(8) ptr @_ZStlsIcSt11char_traitsIcEERSt13basic_ostreamIT_T0_ES6_St5_Setw(ptr noundef nonnull align 8 dereferenceable(8) %9, i32 %13)
  %15 = call i8 @_ZSt7setfillIcESt8_SetfillIT_ES1_(i8 noundef signext 48)
  %16 = getelementptr inbounds nuw %"struct.std::_Setfill", ptr %6, i32 0, i32 0
  store i8 %15, ptr %16, align 1
  %17 = getelementptr inbounds nuw %"struct.std::_Setfill", ptr %6, i32 0, i32 0
  %18 = load i8, ptr %17, align 1
  %19 = call noundef nonnull align 8 dereferenceable(8) ptr @_ZStlsIcSt11char_traitsIcEERSt13basic_ostreamIT_T0_ES6_St8_SetfillIS3_E(ptr noundef nonnull align 8 dereferenceable(8) %14, i8 %18)
  %20 = load ptr, ptr %4, align 8, !tbaa !4
  %21 = call noundef i32 @_ZNK6V3Hash5valueEv(ptr noundef nonnull align 4 dereferenceable(4) %20)
  %22 = call noundef nonnull align 8 dereferenceable(8) ptr @_ZNSolsEj(ptr noundef nonnull align 8 dereferenceable(8) %19, i32 noundef %21)
  ret ptr %22
}