; Function Attrs: mustprogress uwtable
define dso_local noundef nonnull align 8 dereferenceable(8) ptr @_ZlsRSoRK6V3Hash(ptr noundef nonnull align 8 dereferenceable(8) %0, ptr noundef nonnull readonly align 4 captures(none) dereferenceable(4) %1) #5 {
  %3 = alloca i8, align 1
  call void @llvm.lifetime.start.p0(i64 1, ptr nonnull %3)
  store i8 104, ptr %3, align 1, !tbaa !16
  %4 = load ptr, ptr %0, align 8, !tbaa !17
  %5 = getelementptr i8, ptr %4, i64 -24
  %6 = load i64, ptr %5, align 8
  %7 = getelementptr inbounds i8, ptr %0, i64 %6
  %8 = getelementptr inbounds nuw i8, ptr %7, i64 16
  %9 = load i64, ptr %8, align 8, !tbaa !19
  %.not.i = icmp eq i64 %9, 0
  br i1 %.not.i, label %12, label %10

10:                                               ; preds = %2
  %11 = call noundef nonnull align 8 dereferenceable(8) ptr @_ZSt16__ostream_insertIcSt11char_traitsIcEERSt13basic_ostreamIT_T0_ES6_PKS3_l(ptr noundef nonnull align 8 dereferenceable(8) %0, ptr noundef nonnull %3, i64 noundef 1)
  br label %_ZStlsISt11char_traitsIcEERSt13basic_ostreamIcT_ES5_c.exit

12:                                               ; preds = %2
  %13 = tail call noundef nonnull align 8 dereferenceable(8) ptr @_ZNSo3putEc(ptr noundef nonnull align 8 dereferenceable(8) %0, i8 noundef signext 104)
  br label %_ZStlsISt11char_traitsIcEERSt13basic_ostreamIcT_ES5_c.exit

_ZStlsISt11char_traitsIcEERSt13basic_ostreamIcT_ES5_c.exit: ; preds = %10, %12
  %.0.i = phi ptr [ %11, %10 ], [ %0, %12 ]
  call void @llvm.lifetime.end.p0(i64 1, ptr nonnull %3)
  %14 = load ptr, ptr %.0.i, align 8, !tbaa !17
  %15 = getelementptr i8, ptr %14, i64 -24
  %16 = load i64, ptr %15, align 8
  %17 = getelementptr inbounds i8, ptr %.0.i, i64 %16
  %18 = getelementptr inbounds nuw i8, ptr %17, i64 24
  %19 = load i32, ptr %18, align 8, !tbaa !28
  %20 = and i32 %19, -75
  %21 = or disjoint i32 %20, 8
  store i32 %21, ptr %18, align 4, !tbaa !29
  %22 = load i64, ptr %15, align 8
  %23 = getelementptr inbounds i8, ptr %.0.i, i64 %22
  %24 = getelementptr inbounds nuw i8, ptr %23, i64 16
  store i64 8, ptr %24, align 8, !tbaa !19
  %25 = load i64, ptr %15, align 8
  %26 = getelementptr inbounds i8, ptr %.0.i, i64 %25
  %27 = getelementptr inbounds nuw i8, ptr %26, i64 225
  %28 = load i8, ptr %27, align 1, !tbaa !30, !range !38, !noundef !39
  %29 = trunc nuw i8 %28 to i1
  br i1 %29, label %_ZStlsIcSt11char_traitsIcEERSt13basic_ostreamIT_T0_ES6_St8_SetfillIS3_E.exit, label %30

30:                                               ; preds = %_ZStlsISt11char_traitsIcEERSt13basic_ostreamIcT_ES5_c.exit
  %31 = getelementptr inbounds nuw i8, ptr %26, i64 240
  %32 = load ptr, ptr %31, align 8, !tbaa !40
  %.not.i.i.i.i.i = icmp eq ptr %32, null
  br i1 %.not.i.i.i.i.i, label %33, label %_ZSt13__check_facetISt5ctypeIcEERKT_PS3_.exit.i.i.i.i

33:                                               ; preds = %30
  call void @_ZSt16__throw_bad_castv() #14
  unreachable

_ZSt13__check_facetISt5ctypeIcEERKT_PS3_.exit.i.i.i.i: ; preds = %30
  %34 = getelementptr inbounds nuw i8, ptr %32, i64 56
  %35 = load i8, ptr %34, align 8, !tbaa !41
  %.not.i1.i.i.i.i = icmp eq i8 %35, 0
  br i1 %.not.i1.i.i.i.i, label %36, label %_ZNKSt9basic_iosIcSt11char_traitsIcEE5widenEc.exit.i.i.i

36:                                               ; preds = %_ZSt13__check_facetISt5ctypeIcEERKT_PS3_.exit.i.i.i.i
  call void @_ZNKSt5ctypeIcE13_M_widen_initEv(ptr noundef nonnull align 8 dereferenceable(570) %32)
  %37 = load ptr, ptr %32, align 8, !tbaa !17
  %38 = getelementptr inbounds nuw i8, ptr %37, i64 48
  %39 = load ptr, ptr %38, align 8
  %40 = call noundef signext i8 %39(ptr noundef nonnull align 8 dereferenceable(570) %32, i8 noundef signext 32)
  br label %_ZNKSt9basic_iosIcSt11char_traitsIcEE5widenEc.exit.i.i.i

_ZNKSt9basic_iosIcSt11char_traitsIcEE5widenEc.exit.i.i.i: ; preds = %36, %_ZSt13__check_facetISt5ctypeIcEERKT_PS3_.exit.i.i.i.i
  store i8 1, ptr %27, align 1, !tbaa !30
  br label %_ZStlsIcSt11char_traitsIcEERSt13basic_ostreamIT_T0_ES6_St8_SetfillIS3_E.exit

_ZStlsIcSt11char_traitsIcEERSt13basic_ostreamIT_T0_ES6_St8_SetfillIS3_E.exit: ; preds = %_ZStlsISt11char_traitsIcEERSt13basic_ostreamIcT_ES5_c.exit, %_ZNKSt9basic_iosIcSt11char_traitsIcEE5widenEc.exit.i.i.i
  %41 = getelementptr inbounds nuw i8, ptr %26, i64 224
  store i8 48, ptr %41, align 8, !tbaa !47
  %42 = load i32, ptr %1, align 4, !tbaa !13
  %43 = zext i32 %42 to i64
  %44 = call noundef nonnull align 8 dereferenceable(8) ptr @_ZNSo9_M_insertImEERSoT_(ptr noundef nonnull align 8 dereferenceable(8) %.0.i, i64 noundef %43)
  ret ptr %44
}